target datalayout = "e-m:e-p270:32:32-p271:32:32-p272:64:64-i64:64-i128:128-f80:128-n8:16:32:64-S128"
target triple = "x86_64-pc-linux-gnu"

%"struct.std::pair" = type { i32, i64 }
%"class.arrow::Result" = type { %"class.arrow::Status", %"class.arrow::internal::AlignedStorage" }
%"class.arrow::Status" = type { ptr }
%"class.arrow::internal::AlignedStorage" = type { [8 x i8] }
%"class.arrow::TimestampType" = type { %"class.arrow::TemporalType", i32, %"class.std::__cxx11::basic_string" }
%"class.arrow::TemporalType" = type { %"class.arrow::FixedWidthType" }
%"class.arrow::FixedWidthType" = type { %"class.arrow::DataType" }
%"class.arrow::DataType" = type { %"class.arrow::detail::Fingerprintable", %"class.std::enable_shared_from_this", i32, %"class.std::vector" }
%"class.arrow::detail::Fingerprintable" = type { ptr, %"struct.std::atomic", %"struct.std::atomic" }
%"struct.std::atomic" = type { %"struct.std::__atomic_base" }
%"struct.std::__atomic_base" = type { ptr }
%"class.std::enable_shared_from_this" = type { %"class.std::weak_ptr" }
%"class.std::weak_ptr" = type { %"class.std::__weak_ptr" }
%"class.std::__weak_ptr" = type { ptr, %"class.std::__weak_count" }
%"class.std::__weak_count" = type { ptr }
%"class.std::vector" = type { %"struct.std::_Vector_base" }
%"struct.std::_Vector_base" = type { %"struct.std::_Vector_base<std::shared_ptr<arrow::Field>, std::allocator<std::shared_ptr<arrow::Field>>>::_Vector_impl" }
%"struct.std::_Vector_base<std::shared_ptr<arrow::Field>, std::allocator<std::shared_ptr<arrow::Field>>>::_Vector_impl" = type { %"struct.std::_Vector_base<std::shared_ptr<arrow::Field>, std::allocator<std::shared_ptr<arrow::Field>>>::_Vector_impl_data" }
%"struct.std::_Vector_base<std::shared_ptr<arrow::Field>, std::allocator<std::shared_ptr<arrow::Field>>>::_Vector_impl_data" = type { ptr, ptr, ptr }
%"class.std::__cxx11::basic_string" = type { %"struct.std::__cxx11::basic_string<char>::_Alloc_hider", i64, %union.anon }
%"struct.std::__cxx11::basic_string<char>::_Alloc_hider" = type { ptr }
%union.anon = type { i64, [8 x i8] }
%"class.std::__shared_ptr" = type { ptr, %"class.std::__shared_count" }
%"class.std::__shared_count" = type { ptr }

$_ZN5arrow8internal12checked_castIRKNS_13TimestampTypeERNS_8DataTypeEEET_OT0_ = comdat any

$_ZNKSt19__shared_ptr_accessIN5arrow8DataTypeELN9__gnu_cxx12_Lock_policyE2ELb0ELb0EEdeEv = comdat any

$_ZNK5arrow13TimestampType4unitEv = comdat any

$_ZN5arrow6ResultIlEC2EOl = comdat any

$_ZN5arrow6ResultIlEC2IivEEOT_ = comdat any

$_ZNKSt19__shared_ptr_accessIN5arrow8DataTypeELN9__gnu_cxx12_Lock_policyE2ELb0ELb0EE6_M_getEv = comdat any

$_ZNKSt12__shared_ptrIN5arrow8DataTypeELN9__gnu_cxx12_Lock_policyE2EE3getEv = comdat any

$_ZN5arrow6StatusC2Ev = comdat any

$_ZN5arrow6ResultIlE14ConstructValueIlEEvOT_ = comdat any

$_ZN5arrow8internal14AlignedStorageIlE9constructIJlEEEvDpOT_ = comdat any

$_ZN5arrow6ResultIlE14ConstructValueIiEEvOT_ = comdat any

$_ZN5arrow8internal14AlignedStorageIlE9constructIJiEEEvDpOT_ = comdat any

@_ZN5arrow4utilL25kTimestampConversionTableE = internal constant [4 x [4 x %"struct.std::pair"]] [[4 x %"struct.std::pair"] [%"struct.std::pair" { i32 0, i64 1 }, %"struct.std::pair" { i32 0, i64 1000 }, %"struct.std::pair" { i32 0, i64 1000000 }, %"struct.std::pair" { i32 0, i64 1000000000 }], [4 x %"struct.std::pair"] [%"struct.std::pair" { i32 1, i64 1000 }, %"struct.std::pair" { i32 0, i64 1 }, %"struct.std::pair" { i32 0, i64 1000 }, %"struct.std::pair" { i32 0, i64 1000000 }], [4 x %"struct.std::pair"] [%"struct.std::pair" { i32 1, i64 1000000 }, %"struct.std::pair" { i32 1, i64 1000 }, %"struct.std::pair" { i32 0, i64 1 }, %"struct.std::pair" { i32 0, i64 1000 }], [4 x %"struct.std::pair"] [%"struct.std::pair" { i32 1, i64 1000000000 }, %"struct.std::pair" { i32 1, i64 1000000 }, %"struct.std::pair" { i32 1, i64 1000 }, %"struct.std::pair" { i32 0, i64 1 }]], align 16

; Function Attrs: mustprogress nounwind uwtable
define { i32, i64 } @_ZN5arrow4util22GetTimestampConversionENS_8TimeUnit4typeES2_(i32 noundef %0, i32 noundef %1) #0 {
  %3 = alloca %"struct.std::pair", align 8
  %4 = alloca i32, align 4
  %5 = alloca i32, align 4
  store i32 %0, ptr %4, align 4, !tbaa !3
  store i32 %1, ptr %5, align 4, !tbaa !3
  %6 = load i32, ptr %4, align 4, !tbaa !3
  %7 = sext i32 %6 to i64
  %8 = getelementptr inbounds [4 x [4 x %"struct.std::pair"]], ptr @_ZN5arrow4utilL25kTimestampConversionTableE, i64 0, i64 %7
  %9 = load i32, ptr %5, align 4, !tbaa !3
  %10 = sext i32 %9 to i64
  %11 = getelementptr inbounds [4 x %"struct.std::pair"], ptr %8, i64 0, i64 %10
  call void @llvm.memcpy.p0.p0.i64(ptr align 8 %3, ptr align 16 %11, i64 16, i1 false)
  %12 = load { i32, i64 }, ptr %3, align 8
  ret { i32, i64 } %12
}

; Function Attrs: nocallback nofree nounwind willreturn memory(argmem: readwrite)
declare void @llvm.memcpy.p0.p0.i64(ptr noalias writeonly captures(none), ptr noalias readonly captures(none), i64, i1 immarg) #1

; Function Attrs: mustprogress uwtable
define void @_ZN5arrow4util21ConvertTimestampValueERKSt10shared_ptrINS_8DataTypeEES5_l(ptr dead_on_unwind noalias writable sret(%"class.arrow::Result") align 8 %0, ptr noundef nonnull align 8 dereferenceable(16) %1, ptr noundef nonnull align 8 dereferenceable(16) %2, i64 noundef %3) #2 {
  %5 = alloca ptr, align 8
  %6 = alloca ptr, align 8
  %7 = alloca ptr, align 8
  %8 = alloca i64, align 8
  %9 = alloca %"struct.std::pair", align 8
  %10 = alloca i32, align 4
  %11 = alloca i64, align 8
  %12 = alloca i64, align 8
  %13 = alloca i32, align 4
  %14 = alloca i64, align 8
  %15 = alloca i32, align 4
  store ptr %0, ptr %5, align 8
  store ptr %1, ptr %6, align 8, !tbaa !7
  store ptr %2, ptr %7, align 8, !tbaa !7
  store i64 %3, ptr %8, align 8, !tbaa !10
  call void @llvm.lifetime.start.p0(i64 16, ptr %9) #5
  %16 = load ptr, ptr %6, align 8, !tbaa !7
  %17 = call noundef nonnull align 8 dereferenceable(72) ptr @_ZNKSt19__shared_ptr_accessIN5arrow8DataTypeELN9__gnu_cxx12_Lock_policyE2ELb0ELb0EEdeEv(ptr noundef nonnull align 1 dereferenceable(1) %16) #5
  %18 = call noundef nonnull align 8 dereferenceable(112) ptr @_ZN5arrow8internal12checked_castIRKNS_13TimestampTypeERNS_8DataTypeEEET_OT0_(ptr noundef nonnull align 8 dereferenceable(72) %17)
  %19 = call noundef i32 @_ZNK5arrow13TimestampType4unitEv(ptr noundef nonnull align 8 dereferenceable(112) %18)
  %20 = load ptr, ptr %7, align 8, !tbaa !7
  %21 = call noundef nonnull align 8 dereferenceable(72) ptr @_ZNKSt19__shared_ptr_accessIN5arrow8DataTypeELN9__gnu_cxx12_Lock_policyE2ELb0ELb0EEdeEv(ptr noundef nonnull align 1 dereferenceable(1) %20) #5
  %22 = call noundef nonnull align 8 dereferenceable(112) ptr @_ZN5arrow8internal12checked_castIRKNS_13TimestampTypeERNS_8DataTypeEEET_OT0_(ptr noundef nonnull align 8 dereferenceable(72) %21)
  %23 = call noundef i32 @_ZNK5arrow13TimestampType4unitEv(ptr noundef nonnull align 8 dereferenceable(112) %22)
  %24 = call { i32, i64 } @_ZN5arrow4util22GetTimestampConversionENS_8TimeUnit4typeES2_(i32 noundef %19, i32 noundef %23)
  %25 = getelementptr inbounds nuw { i32, i64 }, ptr %9, i32 0, i32 0
  %26 = extractvalue { i32, i64 } %24, 0
  store i32 %26, ptr %25, align 8
  %27 = getelementptr inbounds nuw { i32, i64 }, ptr %9, i32 0, i32 1
  %28 = extractvalue { i32, i64 } %24, 1
  store i64 %28, ptr %27, align 8
  call void @llvm.lifetime.start.p0(i64 4, ptr %10) #5
  %29 = getelementptr inbounds nuw %"struct.std::pair", ptr %9, i32 0, i32 0
  %30 = load i32, ptr %29, align 8, !tbaa !12
  store i32 %30, ptr %10, align 4, !tbaa !15
  call void @llvm.lifetime.start.p0(i64 8, ptr %11) #5
  %31 = getelementptr inbounds nuw %"struct.std::pair", ptr %9, i32 0, i32 1
  %32 = load i64, ptr %31, align 8, !tbaa !16
  store i64 %32, ptr %11, align 8, !tbaa !10
  %33 = load i32, ptr %10, align 4, !tbaa !15
  switch i32 %33, label %42 [
    i32 0, label %34
    i32 1, label %38
  ]

34:                                               ; preds = %4
  call void @llvm.lifetime.start.p0(i64 8, ptr %12) #5
  %35 = load i64, ptr %8, align 8, !tbaa !10
  %36 = load i64, ptr %11, align 8, !tbaa !10
  %37 = mul nsw i64 %35, %36
  store i64 %37, ptr %12, align 8, !tbaa !10
  call void @_ZN5arrow6ResultIlEC2EOl(ptr noundef nonnull align 8 dereferenceable(16) %0, ptr noundef nonnull align 8 dereferenceable(8) %12) #5
  call void @llvm.lifetime.end.p0(i64 8, ptr %12) #5
  store i32 1, ptr %13, align 4
  br label %43

38:                                               ; preds = %4
  call void @llvm.lifetime.start.p0(i64 8, ptr %14) #5
  %39 = load i64, ptr %8, align 8, !tbaa !10
  %40 = load i64, ptr %11, align 8, !tbaa !10
  %41 = sdiv i64 %39, %40
  store i64 %41, ptr %14, align 8, !tbaa !10
  call void @_ZN5arrow6ResultIlEC2EOl(ptr noundef nonnull align 8 dereferenceable(16) %0, ptr noundef nonnull align 8 dereferenceable(8) %14) #5
  call void @llvm.lifetime.end.p0(i64 8, ptr %14) #5
  store i32 1, ptr %13, align 4
  br label %43

42:                                               ; preds = %4
  call void @llvm.lifetime.start.p0(i64 4, ptr %15) #5
  store i32 0, ptr %15, align 4, !tbaa !17
  call void @_ZN5arrow6ResultIlEC2IivEEOT_(ptr noundef nonnull align 8 dereferenceable(16) %0, ptr noundef nonnull align 4 dereferenceable(4) %15) #5
  call void @llvm.lifetime.end.p0(i64 4, ptr %15) #5
  store i32 1, ptr %13, align 4
  br label %43

43:                                               ; preds = %42, %38, %34
  call void @llvm.lifetime.end.p0(i64 8, ptr %11) #5
  call void @llvm.lifetime.end.p0(i64 4, ptr %10) #5
  call void @llvm.lifetime.end.p0(i64 16, ptr %9) #5
  ret void
}

; Function Attrs: nocallback nofree nosync nounwind willreturn memory(argmem: readwrite)
declare void @llvm.lifetime.start.p0(i64 immarg, ptr captures(none)) #3

; Function Attrs: inlinehint mustprogress nounwind uwtable
define linkonce_odr noundef nonnull align 8 dereferenceable(112) ptr @_ZN5arrow8internal12checked_castIRKNS_13TimestampTypeERNS_8DataTypeEEET_OT0_(ptr noundef nonnull align 8 dereferenceable(72) %0) #4 comdat {
  %2 = alloca ptr, align 8
  store ptr %0, ptr %2, align 8, !tbaa !19
  %3 = load ptr, ptr %2, align 8, !tbaa !19
  ret ptr %3
}

; Function Attrs: mustprogress nounwind uwtable
define linkonce_odr noundef nonnull align 8 dereferenceable(72) ptr @_ZNKSt19__shared_ptr_accessIN5arrow8DataTypeELN9__gnu_cxx12_Lock_policyE2ELb0ELb0EEdeEv(ptr noundef nonnull align 1 dereferenceable(1) %0) #0 comdat align 2 {
  %2 = alloca ptr, align 8
  store ptr %0, ptr %2, align 8, !tbaa !21
  %3 = load ptr, ptr %2, align 8
  br label %4

4:                                                ; preds = %1
  br label %5

5:                                                ; preds = %4
  br label %6

6:                                                ; preds = %5
  %7 = call noundef ptr @_ZNKSt19__shared_ptr_accessIN5arrow8DataTypeELN9__gnu_cxx12_Lock_policyE2ELb0ELb0EE6_M_getEv(ptr noundef nonnull align 1 dereferenceable(1) %3) #5
  ret ptr %7
}

; Function Attrs: mustprogress nounwind uwtable
define linkonce_odr noundef i32 @_ZNK5arrow13TimestampType4unitEv(ptr noundef nonnull align 8 dereferenceable(112) %0) #0 comdat align 2 {
  %2 = alloca ptr, align 8
  store ptr %0, ptr %2, align 8, !tbaa !23
  %3 = load ptr, ptr %2, align 8
  %4 = getelementptr inbounds nuw %"class.arrow::TimestampType", ptr %3, i32 0, i32 1
  %5 = load i32, ptr %4, align 8, !tbaa !25
  ret i32 %5
}

; Function Attrs: mustprogress nounwind uwtable
define linkonce_odr void @_ZN5arrow6ResultIlEC2EOl(ptr noundef nonnull align 8 dereferenceable(16) %0, ptr noundef nonnull align 8 dereferenceable(8) %1) unnamed_addr #0 comdat align 2 {
  %3 = alloca ptr, align 8
  %4 = alloca ptr, align 8
  store ptr %0, ptr %3, align 8, !tbaa !48
  store ptr %1, ptr %4, align 8, !tbaa !50
  %5 = load ptr, ptr %3, align 8
  %6 = getelementptr inbounds nuw %"class.arrow::Result", ptr %5, i32 0, i32 0
  call void @_ZN5arrow6StatusC2Ev(ptr noundef nonnull align 8 dereferenceable(8) %6) #5
  %7 = load ptr, ptr %4, align 8, !tbaa !50
  call void @_ZN5arrow6ResultIlE14ConstructValueIlEEvOT_(ptr noundef nonnull align 8 dereferenceable(16) %5, ptr noundef nonnull align 8 dereferenceable(8) %7) #5
  ret void
}

; Function Attrs: nocallback nofree nosync nounwind willreturn memory(argmem: readwrite)
declare void @llvm.lifetime.end.p0(i64 immarg, ptr captures(none)) #3

; Function Attrs: mustprogress nounwind uwtable
define linkonce_odr void @_ZN5arrow6ResultIlEC2IivEEOT_(ptr noundef nonnull align 8 dereferenceable(16) %0, ptr noundef nonnull align 4 dereferenceable(4) %1) unnamed_addr #0 comdat align 2 {
  %3 = alloca ptr, align 8
  %4 = alloca ptr, align 8
  store ptr %0, ptr %3, align 8, !tbaa !48
  store ptr %1, ptr %4, align 8, !tbaa !52
  %5 = load ptr, ptr %3, align 8
  %6 = getelementptr inbounds nuw %"class.arrow::Result", ptr %5, i32 0, i32 0
  call void @_ZN5arrow6StatusC2Ev(ptr noundef nonnull align 8 dereferenceable(8) %6) #5
  %7 = load ptr, ptr %4, align 8, !tbaa !52
  call void @_ZN5arrow6ResultIlE14ConstructValueIiEEvOT_(ptr noundef nonnull align 8 dereferenceable(16) %5, ptr noundef nonnull align 4 dereferenceable(4) %7) #5
  ret void
}

; Function Attrs: mustprogress nounwind uwtable
define linkonce_odr noundef ptr @_ZNKSt19__shared_ptr_accessIN5arrow8DataTypeELN9__gnu_cxx12_Lock_policyE2ELb0ELb0EE6_M_getEv(ptr noundef nonnull align 1 dereferenceable(1) %0) #0 comdat align 2 {
  %2 = alloca ptr, align 8
  store ptr %0, ptr %2, align 8, !tbaa !21
  %3 = load ptr, ptr %2, align 8
  %4 = call noundef ptr @_ZNKSt12__shared_ptrIN5arrow8DataTypeELN9__gnu_cxx12_Lock_policyE2EE3getEv(ptr noundef nonnull align 8 dereferenceable(16) %3) #5
  ret ptr %4
}

; Function Attrs: mustprogress nounwind uwtable
define linkonce_odr noundef ptr @_ZNKSt12__shared_ptrIN5arrow8DataTypeELN9__gnu_cxx12_Lock_policyE2EE3getEv(ptr noundef nonnull align 8 dereferenceable(16) %0) #0 comdat align 2 {
  %2 = alloca ptr, align 8
  store ptr %0, ptr %2, align 8, !tbaa !54
  %3 = load ptr, ptr %2, align 8
  %4 = getelementptr inbounds nuw %"class.std::__shared_ptr", ptr %3, i32 0, i32 0
  %5 = load ptr, ptr %4, align 8, !tbaa !56
  ret ptr %5
}

; Function Attrs: mustprogress nounwind uwtable
define linkonce_odr void @_ZN5arrow6StatusC2Ev(ptr noundef nonnull align 8 dereferenceable(8) %0) unnamed_addr #0 comdat align 2 {
  %2 = alloca ptr, align 8
  store ptr %0, ptr %2, align 8, !tbaa !59
  %3 = load ptr, ptr %2, align 8
  %4 = getelementptr inbounds nuw %"class.arrow::Status", ptr %3, i32 0, i32 0
  store ptr null, ptr %4, align 8, !tbaa !61
  ret void
}

; Function Attrs: mustprogress nounwind uwtable
define linkonce_odr void @_ZN5arrow6ResultIlE14ConstructValueIlEEvOT_(ptr noundef nonnull align 8 dereferenceable(16) %0, ptr noundef nonnull align 8 dereferenceable(8) %1) #0 comdat align 2 {
  %3 = alloca ptr, align 8
  %4 = alloca ptr, align 8
  store ptr %0, ptr %3, align 8, !tbaa !48
  store ptr %1, ptr %4, align 8, !tbaa !50
  %5 = load ptr, ptr %3, align 8
  %6 = getelementptr inbounds nuw %"class.arrow::Result", ptr %5, i32 0, i32 1
  %7 = load ptr, ptr %4, align 8, !tbaa !50
  call void @_ZN5arrow8internal14AlignedStorageIlE9constructIJlEEEvDpOT_(ptr noundef nonnull align 8 dereferenceable(8) %6, ptr noundef nonnull align 8 dereferenceable(8) %7) #5
  ret void
}

; Function Attrs: mustprogress nounwind uwtable
define linkonce_odr void @_ZN5arrow8internal14AlignedStorageIlE9constructIJlEEEvDpOT_(ptr noundef nonnull align 8 dereferenceable(8) %0, ptr noundef nonnull align 8 dereferenceable(8) %1) #0 comdat align 2 {
  %3 = alloca ptr, align 8
  %4 = alloca ptr, align 8
  store ptr %0, ptr %3, align 8, !tbaa !64
  store ptr %1, ptr %4, align 8, !tbaa !50
  %5 = load ptr, ptr %3, align 8
  %6 = getelementptr inbounds nuw %"class.arrow::internal::AlignedStorage", ptr %5, i32 0, i32 0
  %7 = load ptr, ptr %4, align 8, !tbaa !50
  %8 = load i64, ptr %7, align 8, !tbaa !10
  store i64 %8, ptr %6, align 8, !tbaa !10
  ret void
}

; Function Attrs: mustprogress nounwind uwtable
define linkonce_odr void @_ZN5arrow6ResultIlE14ConstructValueIiEEvOT_(ptr noundef nonnull align 8 dereferenceable(16) %0, ptr noundef nonnull align 4 dereferenceable(4) %1) #0 comdat align 2 {
  %3 = alloca ptr, align 8
  %4 = alloca ptr, align 8
  store ptr %0, ptr %3, align 8, !tbaa !48
  store ptr %1, ptr %4, align 8, !tbaa !52
  %5 = load ptr, ptr %3, align 8
  %6 = getelementptr inbounds nuw %"class.arrow::Result", ptr %5, i32 0, i32 1
  %7 = load ptr, ptr %4, align 8, !tbaa !52
  call void @_ZN5arrow8internal14AlignedStorageIlE9constructIJiEEEvDpOT_(ptr noundef nonnull align 8 dereferenceable(8) %6, ptr noundef nonnull align 4 dereferenceable(4) %7) #5
  ret void
}

; Function Attrs: mustprogress nounwind uwtable
define linkonce_odr void @_ZN5arrow8internal14AlignedStorageIlE9constructIJiEEEvDpOT_(ptr noundef nonnull align 8 dereferenceable(8) %0, ptr noundef nonnull align 4 dereferenceable(4) %1) #0 comdat align 2 {
  %3 = alloca ptr, align 8
  %4 = alloca ptr, align 8
  store ptr %0, ptr %3, align 8, !tbaa !64
  store ptr %1, ptr %4, align 8, !tbaa !52
  %5 = load ptr, ptr %3, align 8
  %6 = getelementptr inbounds nuw %"class.arrow::internal::AlignedStorage", ptr %5, i32 0, i32 0
  %7 = load ptr, ptr %4, align 8, !tbaa !52
  %8 = load i32, ptr %7, align 4, !tbaa !17
  %9 = sext i32 %8 to i64
  store i64 %9, ptr %6, align 8, !tbaa !10
  ret void
}


!llvm.module.flags = !{!0, !1, !2}

!0 = !{i32 1, !"wchar_size", i32 4}
!1 = !{i32 8, !"PIC Level", i32 2}
!2 = !{i32 7, !"uwtable", i32 2}
!3 = !{!4, !4, i64 0}
!4 = !{!"_ZTSN5arrow8TimeUnit4typeE", !5, i64 0}
!5 = !{!"omnipotent char", !6, i64 0}
!6 = !{!"Simple C++ TBAA"}
!7 = !{!8, !8, i64 0}
!8 = !{!"p1 _ZTSSt10shared_ptrIN5arrow8DataTypeEE", !9, i64 0}
!9 = !{!"any pointer", !5, i64 0}
!10 = !{!11, !11, i64 0}
!11 = !{!"long", !5, i64 0}
!12 = !{!13, !14, i64 0}
!13 = !{!"_ZTSSt4pairIN5arrow4util16DivideOrMultiplyElE", !14, i64 0, !11, i64 8}
!14 = !{!"_ZTSN5arrow4util16DivideOrMultiplyE", !5, i64 0}
!15 = !{!14, !14, i64 0}
!16 = !{!13, !11, i64 8}
!17 = !{!18, !18, i64 0}
!18 = !{!"int", !5, i64 0}
!19 = !{!20, !20, i64 0}
!20 = !{!"p1 _ZTSN5arrow8DataTypeE", !9, i64 0}
!21 = !{!22, !22, i64 0}
!22 = !{!"p1 _ZTSSt19__shared_ptr_accessIN5arrow8DataTypeELN9__gnu_cxx12_Lock_policyE2ELb0ELb0EE", !9, i64 0}
!23 = !{!24, !24, i64 0}
!24 = !{!"p1 _ZTSN5arrow13TimestampTypeE", !9, i64 0}
!25 = !{!26, !4, i64 72}
!26 = !{!"_ZTSN5arrow13TimestampTypeE", !27, i64 0, !4, i64 72, !45, i64 80}
!27 = !{!"_ZTSN5arrow12TemporalTypeE", !28, i64 0}
!28 = !{!"_ZTSN5arrow14FixedWidthTypeE", !29, i64 0}
!29 = !{!"_ZTSN5arrow8DataTypeE", !30, i64 0, !34, i64 24, !39, i64 40, !40, i64 48}
!30 = !{!"_ZTSN5arrow6detail15FingerprintableE", !31, i64 8, !31, i64 16}
!31 = !{!"_ZTSSt6atomicIPNSt7__cxx1112basic_stringIcSt11char_traitsIcESaIcEEEE", !32, i64 0}
!32 = !{!"_ZTSSt13__atomic_baseIPNSt7__cxx1112basic_stringIcSt11char_traitsIcESaIcEEEE", !33, i64 0}
!33 = !{!"p1 _ZTSNSt7__cxx1112basic_stringIcSt11char_traitsIcESaIcEEE", !9, i64 0}
!34 = !{!"_ZTSSt23enable_shared_from_thisIN5arrow8DataTypeEE", !35, i64 0}
!35 = !{!"_ZTSSt8weak_ptrIN5arrow8DataTypeEE", !36, i64 0}
!36 = !{!"_ZTSSt10__weak_ptrIN5arrow8DataTypeELN9__gnu_cxx12_Lock_policyE2EE", !20, i64 0, !37, i64 8}
!37 = !{!"_ZTSSt12__weak_countILN9__gnu_cxx12_Lock_policyE2EE", !38, i64 0}
!38 = !{!"p1 _ZTSSt16_Sp_counted_baseILN9__gnu_cxx12_Lock_policyE2EE", !9, i64 0}
!39 = !{!"_ZTSN5arrow4Type4typeE", !5, i64 0}
!40 = !{!"_ZTSSt6vectorISt10shared_ptrIN5arrow5FieldEESaIS3_EE", !41, i64 0}
!41 = !{!"_ZTSSt12_Vector_baseISt10shared_ptrIN5arrow5FieldEESaIS3_EE", !42, i64 0}
!42 = !{!"_ZTSNSt12_Vector_baseISt10shared_ptrIN5arrow5FieldEESaIS3_EE12_Vector_implE", !43, i64 0}
!43 = !{!"_ZTSNSt12_Vector_baseISt10shared_ptrIN5arrow5FieldEESaIS3_EE17_Vector_impl_dataE", !44, i64 0, !44, i64 8, !44, i64 16}
!44 = !{!"p1 _ZTSSt10shared_ptrIN5arrow5FieldEE", !9, i64 0}
!45 = !{!"_ZTSNSt7__cxx1112basic_stringIcSt11char_traitsIcESaIcEEE", !46, i64 0, !11, i64 8, !5, i64 16}
!46 = !{!"_ZTSNSt7__cxx1112basic_stringIcSt11char_traitsIcESaIcEE12_Alloc_hiderE", !47, i64 0}
!47 = !{!"p1 omnipotent char", !9, i64 0}
!48 = !{!49, !49, i64 0}
!49 = !{!"p1 _ZTSN5arrow6ResultIlEE", !9, i64 0}
!50 = !{!51, !51, i64 0}
!51 = !{!"p1 long", !9, i64 0}
!52 = !{!53, !53, i64 0}
!53 = !{!"p1 int", !9, i64 0}
!54 = !{!55, !55, i64 0}
!55 = !{!"p1 _ZTSSt12__shared_ptrIN5arrow8DataTypeELN9__gnu_cxx12_Lock_policyE2EE", !9, i64 0}
!56 = !{!57, !20, i64 0}
!57 = !{!"_ZTSSt12__shared_ptrIN5arrow8DataTypeELN9__gnu_cxx12_Lock_policyE2EE", !20, i64 0, !58, i64 8}
!58 = !{!"_ZTSSt14__shared_countILN9__gnu_cxx12_Lock_policyE2EE", !38, i64 0}
!59 = !{!60, !60, i64 0}
!60 = !{!"p1 _ZTSN5arrow6StatusE", !9, i64 0}
!61 = !{!62, !63, i64 0}
!62 = !{!"_ZTSN5arrow6StatusE", !63, i64 0}
!63 = !{!"p1 _ZTSN5arrow6Status5StateE", !9, i64 0}
!64 = !{!65, !65, i64 0}
!65 = !{!"p1 _ZTSN5arrow8internal14AlignedStorageIlEE", !9, i64 0}
